target datalayout = "e-m:e-p270:32:32-p271:32:32-p272:64:64-i64:64-i128:128-f80:128-n8:16:32:64-S128"
target triple = "x86_64-pc-linux-gnu"

%"class.llvm::SmallVectorBase" = type { ptr, i32, i32 }
%"class.llvm::SmallPtrSetImplBase.base" = type <{ ptr, ptr, i32, i32, i32 }>
%"class.llvm::LoopVectorizationLegality" = type <{ ptr, ptr, ptr, ptr, ptr, ptr, ptr, ptr, ptr, ptr, %"class.llvm::MapVector", %"class.llvm::MapVector.86", %"class.llvm::SmallPtrSet.92", %"class.llvm::SmallPtrSet.95", ptr, %"class.llvm::SmallPtrSet.98", ptr, ptr, ptr, ptr, %"class.llvm::SmallPtrSet.101", ptr, ptr, i8, [7 x i8] }>
%"class.llvm::MapVector" = type { %"class.llvm::DenseMap.78", %"class.llvm::SmallVector.81" }
%"class.llvm::DenseMap.78" = type <{ ptr, i32, i32, i32, [4 x i8] }>
%"class.llvm::SmallVector.81" = type { %"class.llvm::SmallVectorImpl.82" }
%"class.llvm::SmallVectorImpl.82" = type { %"class.llvm::SmallVectorTemplateBase.83" }
%"class.llvm::SmallVectorTemplateBase.83" = type { %"class.llvm::SmallVectorTemplateCommon.84" }
%"class.llvm::SmallVectorTemplateCommon.84" = type { %"class.llvm::SmallVectorBase" }
%"class.llvm::MapVector.86" = type { %"class.llvm::DenseMap.78", %"class.llvm::SmallVector.87" }
%"class.llvm::SmallVector.87" = type { %"class.llvm::SmallVectorImpl.88" }
%"class.llvm::SmallVectorImpl.88" = type { %"class.llvm::SmallVectorTemplateBase.89" }
%"class.llvm::SmallVectorTemplateBase.89" = type { %"class.llvm::SmallVectorTemplateCommon.90" }
%"class.llvm::SmallVectorTemplateCommon.90" = type { %"class.llvm::SmallVectorBase" }
%"class.llvm::SmallPtrSet.92" = type { %"class.llvm::SmallPtrSetImpl.base.94", [4 x ptr] }
%"class.llvm::SmallPtrSetImpl.base.94" = type { %"class.llvm::SmallPtrSetImplBase.base" }
%"class.llvm::SmallPtrSet.95" = type { %"class.llvm::SmallPtrSetImpl.base.97", [8 x ptr] }
%"class.llvm::SmallPtrSetImpl.base.97" = type { %"class.llvm::SmallPtrSetImplBase.base" }
%"class.llvm::SmallPtrSet.98" = type { %"class.llvm::SmallPtrSetImpl.base.100", [4 x ptr] }
%"class.llvm::SmallPtrSetImpl.base.100" = type { %"class.llvm::SmallPtrSetImplBase.base" }
%"class.llvm::SmallPtrSet.101" = type { %"class.llvm::SmallPtrSetImpl.base.103", [8 x ptr] }
%"class.llvm::SmallPtrSetImpl.base.103" = type { %"class.llvm::SmallPtrSetImplBase.base" }
%"class.llvm::iterator_range.271" = type { ptr, ptr }
%"class.llvm::SmallPtrSet.358" = type { %"class.llvm::SmallPtrSetImpl.base.100", [8 x ptr] }
%"class.llvm::SmallPtrSetImplBase" = type <{ ptr, ptr, i32, i32, i32, [4 x i8] }>

; Function Attrs: mustprogress nounwind uwtable
define linkonce_odr hidden noundef zeroext i1 @_ZNK4llvm19SmallPtrSetImplBase7isSmallEv(ptr noundef nonnull align 8 dereferenceable(28) %0) #1 comdat align 2 {
  %2 = alloca ptr, align 8
  store ptr %0, ptr %2, align 8
  %3 = load ptr, ptr %2, align 8
  %4 = getelementptr inbounds nuw %"class.llvm::SmallPtrSetImplBase", ptr %3, i32 0, i32 1
  %5 = load ptr, ptr %4, align 8
  %6 = getelementptr inbounds nuw %"class.llvm::SmallPtrSetImplBase", ptr %3, i32 0, i32 0
  %7 = load ptr, ptr %6, align 8
  %8 = icmp eq ptr %5, %7
  ret i1 %8
}

; Function Attrs: mustprogress nounwind uwtable
define linkonce_odr hidden void @_ZN4llvm19SmallPtrSetImplBaseD2Ev(ptr noundef nonnull align 8 dereferenceable(28) %0) unnamed_addr #1 comdat align 2 {
  %2 = alloca ptr, align 8
  store ptr %0, ptr %2, align 8
  %3 = load ptr, ptr %2, align 8
  %4 = call noundef zeroext i1 @_ZNK4llvm19SmallPtrSetImplBase7isSmallEv(ptr noundef nonnull align 8 dereferenceable(28) %3)
  br i1 %4, label %8, label %5

5:                                                ; preds = %1
  %6 = getelementptr inbounds nuw %"class.llvm::SmallPtrSetImplBase", ptr %3, i32 0, i32 1
  %7 = load ptr, ptr %6, align 8
  call void @free(ptr noundef %7) #2
  br label %8

8:                                                ; preds = %5, %1
  ret void
}

; Function Attrs: mustprogress nounwind uwtable
define linkonce_odr hidden void @_ZN4llvm19SmallPtrSetImplBaseC2EPPKvj(ptr noundef nonnull align 8 dereferenceable(28) %0, ptr noundef %1, i32 noundef %2) unnamed_addr #1 comdat align 2 {
  %4 = alloca ptr, align 8
  %5 = alloca ptr, align 8
  %6 = alloca i32, align 4
  store ptr %0, ptr %4, align 8
  store ptr %1, ptr %5, align 8
  store i32 %2, ptr %6, align 4
  %7 = load ptr, ptr %4, align 8
  %8 = getelementptr inbounds nuw %"class.llvm::SmallPtrSetImplBase", ptr %7, i32 0, i32 0
  %9 = load ptr, ptr %5, align 8
  store ptr %9, ptr %8, align 8
  %10 = getelementptr inbounds nuw %"class.llvm::SmallPtrSetImplBase", ptr %7, i32 0, i32 1
  %11 = load ptr, ptr %5, align 8
  store ptr %11, ptr %10, align 8
  %12 = getelementptr inbounds nuw %"class.llvm::SmallPtrSetImplBase", ptr %7, i32 0, i32 2
  %13 = load i32, ptr %6, align 4
  store i32 %13, ptr %12, align 8
  %14 = getelementptr inbounds nuw %"class.llvm::SmallPtrSetImplBase", ptr %7, i32 0, i32 3
  store i32 0, ptr %14, align 4
  %15 = getelementptr inbounds nuw %"class.llvm::SmallPtrSetImplBase", ptr %7, i32 0, i32 4
  store i32 0, ptr %15, align 8
  ret void
}

; Function Attrs: mustprogress nounwind uwtable
define linkonce_odr hidden void @_ZN4llvm15SmallPtrSetImplIPNS_5ValueEED2Ev(ptr noundef nonnull align 8 dereferenceable(28) %0) unnamed_addr #1 comdat align 2 {
  %2 = alloca ptr, align 8
  store ptr %0, ptr %2, align 8
  %3 = load ptr, ptr %2, align 8
  call void @_ZN4llvm19SmallPtrSetImplBaseD2Ev(ptr noundef nonnull align 8 dereferenceable(28) %3) #2
  ret void
}

; Function Attrs: mustprogress nounwind uwtable
define linkonce_odr hidden void @_ZN4llvm15SmallPtrSetImplIPNS_5ValueEECI2NS_19SmallPtrSetImplBaseEEPPKvj(ptr noundef nonnull align 8 dereferenceable(28) %0, ptr noundef %1, i32 noundef %2) unnamed_addr #1 comdat align 2 {
  %4 = alloca ptr, align 8
  %5 = alloca ptr, align 8
  %6 = alloca i32, align 4
  store ptr %0, ptr %4, align 8
  store ptr %1, ptr %5, align 8
  store i32 %2, ptr %6, align 4
  %7 = load ptr, ptr %4, align 8
  %8 = load ptr, ptr %5, align 8
  %9 = load i32, ptr %6, align 4
  call void @_ZN4llvm19SmallPtrSetImplBaseC2EPPKvj(ptr noundef nonnull align 8 dereferenceable(28) %7, ptr noundef %8, i32 noundef %9)
  ret void
}

; Function Attrs: mustprogress nounwind uwtable
define linkonce_odr hidden void @_ZN4llvm11SmallPtrSetIPNS_5ValueELj8EED2Ev(ptr noundef nonnull align 8 dereferenceable(96) %0) unnamed_addr #1 comdat align 2 {
  %2 = alloca ptr, align 8
  store ptr %0, ptr %2, align 8
  %3 = load ptr, ptr %2, align 8
  call void @_ZN4llvm15SmallPtrSetImplIPNS_5ValueEED2Ev(ptr noundef nonnull align 8 dereferenceable(28) %3) #2
  ret void
}

; Function Attrs: mustprogress nounwind uwtable
define linkonce_odr hidden noundef ptr @_ZNK4llvm14iterator_rangeIPKPNS_10BasicBlockEE3endEv(ptr noundef nonnull align 8 dereferenceable(16) %0) #1 comdat align 2 {
  %2 = alloca ptr, align 8
  store ptr %0, ptr %2, align 8
  %3 = load ptr, ptr %2, align 8
  %4 = getelementptr inbounds nuw %"class.llvm::iterator_range.271", ptr %3, i32 0, i32 1
  %5 = load ptr, ptr %4, align 8
  ret ptr %5
}

; Function Attrs: mustprogress nounwind uwtable
define linkonce_odr hidden noundef ptr @_ZNK4llvm14iterator_rangeIPKPNS_10BasicBlockEE5beginEv(ptr noundef nonnull align 8 dereferenceable(16) %0) #1 comdat align 2 {
  %2 = alloca ptr, align 8
  store ptr %0, ptr %2, align 8
  %3 = load ptr, ptr %2, align 8
  %4 = getelementptr inbounds nuw %"class.llvm::iterator_range.271", ptr %3, i32 0, i32 0
  %5 = load ptr, ptr %4, align 8
  ret ptr %5
}

; Function Attrs: mustprogress nounwind uwtable
define linkonce_odr hidden void @_ZN4llvm11SmallPtrSetIPNS_5ValueELj8EEC2Ev(ptr noundef nonnull align 8 dereferenceable(96) %0) unnamed_addr #1 comdat align 2 {
  %2 = alloca ptr, align 8
  store ptr %0, ptr %2, align 8
  %3 = load ptr, ptr %2, align 8
  %4 = getelementptr inbounds nuw %"class.llvm::SmallPtrSet.358", ptr %3, i32 0, i32 1
  %5 = getelementptr inbounds [8 x ptr], ptr %4, i64 0, i64 0
  call void @_ZN4llvm15SmallPtrSetImplIPNS_5ValueEECI2NS_19SmallPtrSetImplBaseEEPPKvj(ptr noundef nonnull align 8 dereferenceable(28) %3, ptr noundef %5, i32 noundef 8)
  ret void
}

; Function Attrs: mustprogress nounwind uwtable
define dso_local void @_ZN4llvm25LoopVectorizationLegality26prepareToFoldTailByMaskingEv(ptr noundef nonnull align 8 dereferenceable(537) %0) #1 align 2 {
  %2 = alloca ptr, align 8
  %3 = alloca %"class.llvm::SmallPtrSet.358", align 8
  %4 = alloca ptr, align 8
  %5 = alloca %"class.llvm::iterator_range.271", align 8
  %6 = alloca ptr, align 8
  %7 = alloca ptr, align 8
  %8 = alloca ptr, align 8
  %9 = alloca i8, align 1
  store ptr %0, ptr %2, align 8
  %10 = load ptr, ptr %2, align 8
  call void @_ZN4llvm11SmallPtrSetIPNS_5ValueELj8EEC2Ev(ptr noundef nonnull align 8 dereferenceable(96) %3)
  %11 = getelementptr inbounds nuw %"class.llvm::LoopVectorizationLegality", ptr %10, i32 0, i32 0
  %12 = load ptr, ptr %11, align 8
  %13 = call { ptr, ptr } @_ZNK4llvm8LoopBaseINS_10BasicBlockENS_4LoopEE6blocksEv(ptr noundef nonnull align 8 dereferenceable(152) %12)
  %14 = getelementptr inbounds nuw { ptr, ptr }, ptr %5, i32 0, i32 0
  %15 = extractvalue { ptr, ptr } %13, 0
  store ptr %15, ptr %14, align 8
  %16 = getelementptr inbounds nuw { ptr, ptr }, ptr %5, i32 0, i32 1
  %17 = extractvalue { ptr, ptr } %13, 1
  store ptr %17, ptr %16, align 8
  store ptr %5, ptr %4, align 8
  %18 = load ptr, ptr %4, align 8
  %19 = call noundef ptr @_ZNK4llvm14iterator_rangeIPKPNS_10BasicBlockEE5beginEv(ptr noundef nonnull align 8 dereferenceable(16) %18)
  store ptr %19, ptr %6, align 8
  %20 = load ptr, ptr %4, align 8
  %21 = call noundef ptr @_ZNK4llvm14iterator_rangeIPKPNS_10BasicBlockEE3endEv(ptr noundef nonnull align 8 dereferenceable(16) %20)
  store ptr %21, ptr %7, align 8
  br label %22

22:                                               ; preds = %33, %1
  %23 = load ptr, ptr %6, align 8
  %24 = load ptr, ptr %7, align 8
  %25 = icmp ne ptr %23, %24
  br i1 %25, label %26, label %36

26:                                               ; preds = %22
  %27 = load ptr, ptr %6, align 8
  %28 = load ptr, ptr %27, align 8
  store ptr %28, ptr %8, align 8
  %29 = load ptr, ptr %8, align 8
  %30 = getelementptr inbounds nuw %"class.llvm::LoopVectorizationLegality", ptr %10, i32 0, i32 20
  %31 = call noundef zeroext i1 @_ZNK4llvm25LoopVectorizationLegality20blockCanBePredicatedEPNS_10BasicBlockERNS_15SmallPtrSetImplIPNS_5ValueEEERNS3_IPKNS_11InstructionEEE(ptr noundef nonnull align 8 dereferenceable(537) %10, ptr noundef %29, ptr noundef nonnull align 8 dereferenceable(28) %3, ptr noundef nonnull align 8 dereferenceable(28) %30)
  %32 = zext i1 %31 to i8
  store i8 %32, ptr %9, align 1
  br label %33

33:                                               ; preds = %26
  %34 = load ptr, ptr %6, align 8
  %35 = getelementptr inbounds ptr, ptr %34, i32 1
  store ptr %35, ptr %6, align 8
  br label %22

36:                                               ; preds = %22
  call void @_ZN4llvm11SmallPtrSetIPNS_5ValueELj8EED2Ev(ptr noundef nonnull align 8 dereferenceable(96) %3) #2
  ret void
}