; Function Attrs: mustprogress nounwind uwtable
define dso_local void @_ZN4llvm25LoopVectorizationLegality26prepareToFoldTailByMaskingEv(ptr noundef nonnull align 8 dereferenceable(537) %0) local_unnamed_addr #0 align 2 {
  %2 = alloca %"class.llvm::SmallPtrSet.358", align 8
  %3 = getelementptr inbounds nuw i8, ptr %2, i64 32
  store ptr %3, ptr %2, align 8
  %4 = getelementptr inbounds nuw i8, ptr %2, i64 8
  store ptr %3, ptr %4, align 8
  %5 = getelementptr inbounds nuw i8, ptr %2, i64 16
  store i32 8, ptr %5, align 8
  %6 = getelementptr inbounds nuw i8, ptr %2, i64 20
  store i32 0, ptr %6, align 4
  %7 = getelementptr inbounds nuw i8, ptr %2, i64 24
  store i32 0, ptr %7, align 8
  %8 = load ptr, ptr %0, align 8
  %9 = call { ptr, ptr } @_ZNK4llvm8LoopBaseINS_10BasicBlockENS_4LoopEE6blocksEv(ptr noundef nonnull align 8 dereferenceable(152) %8) #20
  %10 = extractvalue { ptr, ptr } %9, 0
  %11 = extractvalue { ptr, ptr } %9, 1
  %.not8 = icmp eq ptr %10, %11
  br i1 %.not8, label %._crit_edge, label %.lr.ph

.lr.ph:                                           ; preds = %1
  %12 = getelementptr inbounds nuw i8, ptr %0, i64 424
  br label %13

13:                                               ; preds = %.lr.ph, %13
  %.09 = phi ptr [ %10, %.lr.ph ], [ %16, %13 ]
  %14 = load ptr, ptr %.09, align 8
  %15 = call noundef zeroext i1 @_ZNK4llvm25LoopVectorizationLegality20blockCanBePredicatedEPNS_10BasicBlockERNS_15SmallPtrSetImplIPNS_5ValueEEERNS3_IPKNS_11InstructionEEE(ptr nonnull align 8 poison, ptr noundef %14, ptr noundef nonnull align 8 dereferenceable(28) %2, ptr noundef nonnull align 8 dereferenceable(28) %12)
  %16 = getelementptr inbounds nuw i8, ptr %.09, i64 8
  %.not = icmp eq ptr %16, %11
  br i1 %.not, label %._crit_edge, label %13

._crit_edge:                                      ; preds = %13, %1
  %17 = load ptr, ptr %4, align 8
  %18 = load ptr, ptr %2, align 8
  %19 = icmp eq ptr %17, %18
  br i1 %19, label %_ZN4llvm11SmallPtrSetIPNS_5ValueELj8EED2Ev.exit, label %20

20:                                               ; preds = %._crit_edge
  call void @free(ptr noundef %17) #20
  br label %_ZN4llvm11SmallPtrSetIPNS_5ValueELj8EED2Ev.exit

_ZN4llvm11SmallPtrSetIPNS_5ValueELj8EED2Ev.exit:  ; preds = %._crit_edge, %20
  ret void
}